target datalayout = "e-m:e-p270:32:32-p271:32:32-p272:64:64-i64:64-i128:128-f80:128-n8:16:32:64-S128"
target triple = "x86_64-pc-linux-gnu"

; Function Attrs: inlinehint mustprogress nounwind willreturn memory(read) uwtable
define available_externally i32 @isspace(i32 noundef %0) #13 {
  %2 = alloca i32, align 4
  store i32 %0, ptr %2, align 4, !tbaa !20
  %3 = call ptr @__ctype_b_loc() #28
  %4 = load ptr, ptr %3, align 8, !tbaa !124
  %5 = load i32, ptr %2, align 4, !tbaa !20
  %6 = sext i32 %5 to i64
  %7 = getelementptr inbounds i16, ptr %4, i64 %6
  %8 = load i16, ptr %7, align 2, !tbaa !126
  %9 = zext i16 %8 to i32
  %10 = and i32 %9, 8192
  ret i32 %10
}

; Function Attrs: mustprogress nounwind uwtable
define internal noundef ptr @_ZL6columnPKci(ptr noundef %0, i32 noundef %1) #4 {
  %3 = alloca ptr, align 8
  %4 = alloca ptr, align 8
  %5 = alloca i32, align 4
  %6 = alloca i32, align 4
  %7 = alloca i32, align 4
  store ptr %0, ptr %4, align 8, !tbaa !18
  store i32 %1, ptr %5, align 4, !tbaa !20
  call void @llvm.lifetime.start.p0(i64 4, ptr %6) #3
  %8 = load i32, ptr %5, align 4, !tbaa !20
  %9 = icmp sle i32 %8, 0
  br i1 %9, label %10, label %12

10:                                               ; preds = %2
  %11 = load ptr, ptr %4, align 8, !tbaa !18
  store ptr %11, ptr %3, align 8
  store i32 1, ptr %7, align 4
  br label %57

12:                                               ; preds = %2
  store i32 0, ptr %6, align 4, !tbaa !20
  br label %13

13:                                               ; preds = %52, %12
  %14 = load i32, ptr %6, align 4, !tbaa !20
  %15 = load i32, ptr %5, align 4, !tbaa !20
  %16 = icmp slt i32 %14, %15
  br i1 %16, label %17, label %55

17:                                               ; preds = %13
  br label %18

18:                                               ; preds = %24, %17
  %19 = load ptr, ptr %4, align 8, !tbaa !18
  %20 = load i8, ptr %19, align 1, !tbaa !28
  %21 = sext i8 %20 to i32
  %22 = call i32 @isspace(i32 noundef %21) #23
  %23 = icmp ne i32 %22, 0
  br i1 %23, label %24, label %27

24:                                               ; preds = %18
  %25 = load ptr, ptr %4, align 8, !tbaa !18
  %26 = getelementptr inbounds nuw i8, ptr %25, i32 1
  store ptr %26, ptr %4, align 8, !tbaa !18
  br label %18, !llvm.loop !121

27:                                               ; preds = %18
  %28 = load i32, ptr %6, align 4, !tbaa !20
  %29 = load i32, ptr %5, align 4, !tbaa !20
  %30 = sub nsw i32 %29, 1
  %31 = icmp eq i32 %28, %30
  br i1 %31, label %32, label %33

32:                                               ; preds = %27
  br label %55

33:                                               ; preds = %27
  br label %34

34:                                               ; preds = %48, %33
  %35 = load ptr, ptr %4, align 8, !tbaa !18
  %36 = load i8, ptr %35, align 1, !tbaa !28
  %37 = sext i8 %36 to i32
  %38 = icmp ne i32 0, %37
  br i1 %38, label %39, label %46

39:                                               ; preds = %34
  %40 = load ptr, ptr %4, align 8, !tbaa !18
  %41 = load i8, ptr %40, align 1, !tbaa !28
  %42 = sext i8 %41 to i32
  %43 = call i32 @isspace(i32 noundef %42) #23
  %44 = icmp ne i32 %43, 0
  %45 = xor i1 %44, true
  br label %46

46:                                               ; preds = %39, %34
  %47 = phi i1 [ false, %34 ], [ %45, %39 ]
  br i1 %47, label %48, label %51

48:                                               ; preds = %46
  %49 = load ptr, ptr %4, align 8, !tbaa !18
  %50 = getelementptr inbounds nuw i8, ptr %49, i32 1
  store ptr %50, ptr %4, align 8, !tbaa !18
  br label %34, !llvm.loop !122

51:                                               ; preds = %46
  br label %52

52:                                               ; preds = %51
  %53 = load i32, ptr %6, align 4, !tbaa !20
  %54 = add nsw i32 %53, 1
  store i32 %54, ptr %6, align 4, !tbaa !20
  br label %13, !llvm.loop !123

55:                                               ; preds = %32, %13
  %56 = load ptr, ptr %4, align 8, !tbaa !18
  store ptr %56, ptr %3, align 8
  store i32 1, ptr %7, align 4
  br label %57

57:                                               ; preds = %55, %10
  call void @llvm.lifetime.end.p0(i64 4, ptr %6) #3
  %58 = load ptr, ptr %3, align 8
  ret ptr %58
}

; Function Attrs: mustprogress uwtable
define internal noundef ptr @_ZL6columnPci(ptr noundef %0, i32 noundef %1) #5 {
  %3 = alloca ptr, align 8
  %4 = alloca i32, align 4
  store ptr %0, ptr %3, align 8, !tbaa !18
  store i32 %1, ptr %4, align 4, !tbaa !20
  %5 = load ptr, ptr %3, align 8, !tbaa !18
  %6 = load i32, ptr %4, align 4, !tbaa !20
  %7 = call noundef ptr @_ZL6columnPKci(ptr noundef %5, i32 noundef %6)
  ret ptr %7
}