; Function Attrs: mustprogress nofree norecurse nosync nounwind willreturn memory(read, inaccessiblemem: none) uwtable
define internal fastcc noundef nonnull ptr @_ZL6columnPci(ptr noundef nonnull readonly %0, i32 noundef range(i32 1, -2147483648) %1) unnamed_addr #3 {
  %3 = add nsw i32 %1, -1
  %4 = tail call ptr @__ctype_b_loc() #38
  %5 = load ptr, ptr %4, align 8, !tbaa !87
  br label %.preheader19.i

.preheader19.i:                                   ; preds = %.critedge.i, %2
  %.026.i = phi i32 [ 0, %2 ], [ %23, %.critedge.i ]
  %.01425.i = phi ptr [ %0, %2 ], [ %.3.lcssa.i, %.critedge.i ]
  br label %6

6:                                                ; preds = %6, %.preheader19.i
  %.2.i = phi ptr [ %12, %6 ], [ %.01425.i, %.preheader19.i ]
  %7 = load i8, ptr %.2.i, align 1, !tbaa !23
  %8 = sext i8 %7 to i64
  %9 = getelementptr inbounds i16, ptr %5, i64 %8
  %10 = load i16, ptr %9, align 2, !tbaa !89
  %11 = and i16 %10, 8192
  %.not.i = icmp eq i16 %11, 0
  %12 = getelementptr inbounds nuw i8, ptr %.2.i, i64 1
  br i1 %.not.i, label %13, label %6, !llvm.loop !91

13:                                               ; preds = %6
  %14 = icmp eq i32 %.026.i, %3
  br i1 %14, label %_ZL6columnPKci.exit, label %.preheader.i

.preheader.i:                                     ; preds = %13
  %.not1721.i = icmp eq i8 %7, 0
  br i1 %.not1721.i, label %.critedge.i, label %.lr.ph.i

.lr.ph.i:                                         ; preds = %.preheader.i, %20
  %15 = phi i8 [ %22, %20 ], [ %7, %.preheader.i ]
  %.322.i = phi ptr [ %21, %20 ], [ %.2.i, %.preheader.i ]
  %16 = sext i8 %15 to i64
  %17 = getelementptr inbounds i16, ptr %5, i64 %16
  %18 = load i16, ptr %17, align 2, !tbaa !89
  %19 = and i16 %18, 8192
  %.not18.i = icmp eq i16 %19, 0
  br i1 %.not18.i, label %20, label %.critedge.i

20:                                               ; preds = %.lr.ph.i
  %21 = getelementptr inbounds nuw i8, ptr %.322.i, i64 1
  %22 = load i8, ptr %21, align 1, !tbaa !23
  %.not17.i = icmp eq i8 %22, 0
  br i1 %.not17.i, label %.critedge.i, label %.lr.ph.i, !llvm.loop !97

.critedge.i:                                      ; preds = %20, %.lr.ph.i, %.preheader.i
  %.3.lcssa.i = phi ptr [ %.2.i, %.preheader.i ], [ %21, %20 ], [ %.322.i, %.lr.ph.i ]
  %23 = add nuw nsw i32 %.026.i, 1
  br label %.preheader19.i

_ZL6columnPKci.exit:                              ; preds = %13
  ret ptr %.2.i
}